#include <math.h>
#include <stdio.h>
#include <stdlib.h>
#include <string.h>

int main()
{
	int r, c, *a, l, m, n, i, up, dn, le, ri,k=1,end=0;
	scanf("%d%d", &r, &c);
	l = r*c;
	up = 1;
	dn = r;
	le = 1;
	ri = c;
	a = (int*)malloc(sizeof(int)*(l + 1));
	for (i = 1; i <= l; i++)
	{
		scanf("%d", &*(a + i));
	}
	printf("%d", *(a + 1));
	do
	{
		for (n = le; n <= ri; n++)
		{
			if (up == 1 && n == 1)
				continue;
			printf("\n%d", *(a + (up - 1)*c + n));
			k++;
			if (k == l)
				end = 1;
		}
		up++;
		if (end == 1)
			break;
		for (m = up; m <= dn; m++)
		{
			printf("\n%d", *(a + (m - 1)*c + ri));
			k++;
			if (k == l)
				end = 1;
		}
		ri--;
		if (end == 1)
			break;
		for (n = ri; n >= le; n--)
		{
			printf("\n%d", *(a + (dn - 1)*c + n));
			k++;
			if (k == l)
				end = 1;
		}
		dn--;
		if (end == 1)
			break;
		for (m = dn; m >= up; m--)
		{
			printf("\n%d", *(a + (m - 1)*c + le));
			k++;
			if (k == l)
				end = 1;
		}
		le++;
		if (end == 1)
			break;
	} while(k!=l);
}